; Function Attrs: mustprogress uwtable
define internal void @_ZNK7testing8internal11MatcherBaseIRKSt5tupleIJN4absl4SpanIKaEES6_NS4_IKNS3_18container_internal12_GLOBAL__N_16Int128EEEEEE10DescribeToEPSo(ptr noundef nonnull align 8 dereferenceable(24) %this, ptr noundef %os) unnamed_addr #3 align 2 personality ptr @__gxx_personality_v0 {
entry:
  %ref.tmp = alloca %"class.testing::internal::GTestLog", align 4
  %vtable_ = getelementptr inbounds i8, ptr %this, i64 8
  %0 = load ptr, ptr %vtable_, align 8
  %cmp = icmp ne ptr %0, null
  %call = tail call noundef zeroext i1 @_ZN7testing8internal6IsTrueEb(i1 noundef zeroext %cmp)
  br i1 %call, label %if.end, label %if.else

if.else:                                          ; preds = %entry
  call void @_ZN7testing8internal8GTestLogC1ENS0_16GTestLogSeverityEPKci(ptr noundef nonnull align 4 dereferenceable(4) %ref.tmp, i32 noundef 3, ptr noundef nonnull @.str.167, i32 noundef 245)
  %call3 = invoke noundef nonnull align 8 dereferenceable(8) ptr @_ZStlsISt11char_traitsIcEERSt13basic_ostreamIcT_ES5_PKc(ptr noundef nonnull align 8 dereferenceable(8) @_ZSt4cerr, ptr noundef nonnull @.str.168)
          to label %invoke.cont unwind label %lpad

invoke.cont:                                      ; preds = %if.else
  call void @_ZN7testing8internal8GTestLogD1Ev(ptr noundef nonnull align 4 dereferenceable(4) %ref.tmp) #21
  br label %if.end

lpad:                                             ; preds = %if.else
  %1 = landingpad { ptr, i32 }
          cleanup
  call void @_ZN7testing8internal8GTestLogD1Ev(ptr noundef nonnull align 4 dereferenceable(4) %ref.tmp) #21
  resume { ptr, i32 } %1

if.end:                                           ; preds = %entry, %invoke.cont
  %2 = load ptr, ptr %vtable_, align 8
  %describe = getelementptr inbounds i8, ptr %2, i64 8
  %3 = load ptr, ptr %describe, align 8
  call void %3(ptr noundef nonnull align 8 dereferenceable(24) %this, ptr noundef %os, i1 noundef zeroext false)
  ret void
}